target datalayout = "e-m:e-p270:32:32-p271:32:32-p272:64:64-i64:64-i128:128-f80:128-n8:16:32:64-S128"
target triple = "x86_64-pc-linux-gnu"

%struct.SResource = type { ptr, i8, i8, i32, i32, i32, i32, i32, ptr, %struct.UString }
%struct.UString = type { ptr, i32, i32 }
%class.ContainerResource = type { %struct.SResource, i32, ptr }

@_ZL11kNoResource = internal global %struct.SResource zeroinitializer, align 8

; Function Attrs: mustprogress nounwind uwtable
define dso_local void @_ZN18PseudoListResource3addEP9SResource(ptr noundef nonnull align 8 dereferenceable(72) %0, ptr noundef %1) #4 align 2 {
  %3 = alloca ptr, align 8
  %4 = alloca ptr, align 8
  store ptr %0, ptr %3, align 8, !tbaa !70
  store ptr %1, ptr %4, align 8, !tbaa !24
  %5 = load ptr, ptr %3, align 8
  %6 = load ptr, ptr %4, align 8, !tbaa !24
  %7 = icmp ne ptr %6, null
  br i1 %7, label %8, label %21

8:                                                ; preds = %2
  %9 = load ptr, ptr %4, align 8, !tbaa !24
  %10 = icmp ne ptr %9, @_ZL11kNoResource
  br i1 %10, label %11, label %21

11:                                               ; preds = %8
  %12 = getelementptr inbounds nuw %class.ContainerResource, ptr %5, i32 0, i32 2
  %13 = load ptr, ptr %12, align 8, !tbaa !55
  %14 = load ptr, ptr %4, align 8, !tbaa !24
  %15 = getelementptr inbounds nuw %struct.SResource, ptr %14, i32 0, i32 8
  store ptr %13, ptr %15, align 8, !tbaa !38
  %16 = load ptr, ptr %4, align 8, !tbaa !24
  %17 = getelementptr inbounds nuw %class.ContainerResource, ptr %5, i32 0, i32 2
  store ptr %16, ptr %17, align 8, !tbaa !55
  %18 = getelementptr inbounds nuw %class.ContainerResource, ptr %5, i32 0, i32 1
  %19 = load i32, ptr %18, align 8, !tbaa !61
  %20 = add i32 %19, 1
  store i32 %20, ptr %18, align 8, !tbaa !61
  br label %21

21:                                               ; preds = %11, %8, %2
  ret void
}