; Function Attrs: mustprogress nofree norecurse nosync nounwind willreturn memory(argmem: readwrite) uwtable
define dso_local void @_ZN18PseudoListResource3addEP9SResource(ptr noundef nonnull align 8 captures(none) dereferenceable(72) %0, ptr noundef %1) local_unnamed_addr #14 align 2 {
  %3 = icmp ne ptr %1, null
  %4 = icmp ne ptr %1, @_ZL11kNoResource
  %or.cond = and i1 %3, %4
  br i1 %or.cond, label %5, label %12

5:                                                ; preds = %2
  %6 = getelementptr inbounds nuw i8, ptr %0, i64 64
  %7 = load ptr, ptr %6, align 8, !tbaa !38
  %8 = getelementptr inbounds nuw i8, ptr %1, i64 32
  store ptr %7, ptr %8, align 8, !tbaa !19
  store ptr %1, ptr %6, align 8, !tbaa !38
  %9 = getelementptr inbounds nuw i8, ptr %0, i64 56
  %10 = load i32, ptr %9, align 8, !tbaa !42
  %11 = add i32 %10, 1
  store i32 %11, ptr %9, align 8, !tbaa !42
  br label %12

12:                                               ; preds = %5, %2
  ret void
}